target datalayout = "e-m:e-p270:32:32-p271:32:32-p272:64:64-i64:64-i128:128-f80:128-n8:16:32:64-S128"
target triple = "x86_64-pc-linux-gnu"

; Function Attrs: mustprogress nounwind uwtable
define noundef zeroext i1 @_Z9UtfToWidePKcPwm(ptr noundef %0, ptr noundef %1, i64 noundef %2) #1 {
  %4 = alloca ptr, align 8
  %5 = alloca ptr, align 8
  %6 = alloca i64, align 8
  %7 = alloca i8, align 1
  %8 = alloca i64, align 8
  %9 = alloca i32, align 4
  %10 = alloca i32, align 4
  store ptr %0, ptr %4, align 8
  store ptr %1, ptr %5, align 8
  store i64 %2, ptr %6, align 8
  store i8 1, ptr %7, align 1
  %11 = load i64, ptr %6, align 8
  store i64 %11, ptr %8, align 8
  %12 = load i64, ptr %8, align 8
  %13 = add nsw i64 %12, -1
  store i64 %13, ptr %8, align 8
  br label %14

14:                                               ; preds = %169, %160, %3
  %15 = load ptr, ptr %4, align 8
  %16 = load i8, ptr %15, align 1
  %17 = sext i8 %16 to i32
  %18 = icmp ne i32 %17, 0
  br i1 %18, label %19, label %170

19:                                               ; preds = %14
  %20 = load ptr, ptr %4, align 8
  %21 = getelementptr inbounds i8, ptr %20, i32 1
  store ptr %21, ptr %4, align 8
  %22 = load i8, ptr %20, align 1
  %23 = zext i8 %22 to i32
  store i32 %23, ptr %9, align 4
  %24 = load i32, ptr %9, align 4
  %25 = icmp ult i32 %24, 128
  br i1 %25, label %26, label %28

26:                                               ; preds = %19
  %27 = load i32, ptr %9, align 4
  store i32 %27, ptr %10, align 4
  br label %144

28:                                               ; preds = %19
  %29 = load i32, ptr %9, align 4
  %30 = lshr i32 %29, 5
  %31 = icmp eq i32 %30, 6
  br i1 %31, label %32, label %50

32:                                               ; preds = %28
  %33 = load ptr, ptr %4, align 8
  %34 = load i8, ptr %33, align 1
  %35 = sext i8 %34 to i32
  %36 = and i32 %35, 192
  %37 = icmp ne i32 %36, 128
  br i1 %37, label %38, label %39

38:                                               ; preds = %32
  store i8 0, ptr %7, align 1
  br label %170

39:                                               ; preds = %32
  %40 = load i32, ptr %9, align 4
  %41 = and i32 %40, 31
  %42 = shl i32 %41, 6
  %43 = load ptr, ptr %4, align 8
  %44 = load i8, ptr %43, align 1
  %45 = sext i8 %44 to i32
  %46 = and i32 %45, 63
  %47 = or i32 %42, %46
  store i32 %47, ptr %10, align 4
  %48 = load ptr, ptr %4, align 8
  %49 = getelementptr inbounds i8, ptr %48, i32 1
  store ptr %49, ptr %4, align 8
  br label %143

50:                                               ; preds = %28
  %51 = load i32, ptr %9, align 4
  %52 = lshr i32 %51, 4
  %53 = icmp eq i32 %52, 14
  br i1 %53, label %54, label %88

54:                                               ; preds = %50
  %55 = load ptr, ptr %4, align 8
  %56 = getelementptr inbounds i8, ptr %55, i64 0
  %57 = load i8, ptr %56, align 1
  %58 = sext i8 %57 to i32
  %59 = and i32 %58, 192
  %60 = icmp ne i32 %59, 128
  br i1 %60, label %68, label %61

61:                                               ; preds = %54
  %62 = load ptr, ptr %4, align 8
  %63 = getelementptr inbounds i8, ptr %62, i64 1
  %64 = load i8, ptr %63, align 1
  %65 = sext i8 %64 to i32
  %66 = and i32 %65, 192
  %67 = icmp ne i32 %66, 128
  br i1 %67, label %68, label %69

68:                                               ; preds = %61, %54
  store i8 0, ptr %7, align 1
  br label %170

69:                                               ; preds = %61
  %70 = load i32, ptr %9, align 4
  %71 = and i32 %70, 15
  %72 = shl i32 %71, 12
  %73 = load ptr, ptr %4, align 8
  %74 = getelementptr inbounds i8, ptr %73, i64 0
  %75 = load i8, ptr %74, align 1
  %76 = sext i8 %75 to i32
  %77 = and i32 %76, 63
  %78 = shl i32 %77, 6
  %79 = or i32 %72, %78
  %80 = load ptr, ptr %4, align 8
  %81 = getelementptr inbounds i8, ptr %80, i64 1
  %82 = load i8, ptr %81, align 1
  %83 = sext i8 %82 to i32
  %84 = and i32 %83, 63
  %85 = or i32 %79, %84
  store i32 %85, ptr %10, align 4
  %86 = load ptr, ptr %4, align 8
  %87 = getelementptr inbounds i8, ptr %86, i64 2
  store ptr %87, ptr %4, align 8
  br label %142

88:                                               ; preds = %50
  %89 = load i32, ptr %9, align 4
  %90 = lshr i32 %89, 3
  %91 = icmp eq i32 %90, 30
  br i1 %91, label %92, label %140

92:                                               ; preds = %88
  %93 = load ptr, ptr %4, align 8
  %94 = getelementptr inbounds i8, ptr %93, i64 0
  %95 = load i8, ptr %94, align 1
  %96 = sext i8 %95 to i32
  %97 = and i32 %96, 192
  %98 = icmp ne i32 %97, 128
  br i1 %98, label %113, label %99

99:                                               ; preds = %92
  %100 = load ptr, ptr %4, align 8
  %101 = getelementptr inbounds i8, ptr %100, i64 1
  %102 = load i8, ptr %101, align 1
  %103 = sext i8 %102 to i32
  %104 = and i32 %103, 192
  %105 = icmp ne i32 %104, 128
  br i1 %105, label %113, label %106

106:                                              ; preds = %99
  %107 = load ptr, ptr %4, align 8
  %108 = getelementptr inbounds i8, ptr %107, i64 2
  %109 = load i8, ptr %108, align 1
  %110 = sext i8 %109 to i32
  %111 = and i32 %110, 192
  %112 = icmp ne i32 %111, 128
  br i1 %112, label %113, label %114

113:                                              ; preds = %106, %99, %92
  store i8 0, ptr %7, align 1
  br label %170

114:                                              ; preds = %106
  %115 = load i32, ptr %9, align 4
  %116 = and i32 %115, 7
  %117 = shl i32 %116, 18
  %118 = load ptr, ptr %4, align 8
  %119 = getelementptr inbounds i8, ptr %118, i64 0
  %120 = load i8, ptr %119, align 1
  %121 = sext i8 %120 to i32
  %122 = and i32 %121, 63
  %123 = shl i32 %122, 12
  %124 = or i32 %117, %123
  %125 = load ptr, ptr %4, align 8
  %126 = getelementptr inbounds i8, ptr %125, i64 1
  %127 = load i8, ptr %126, align 1
  %128 = sext i8 %127 to i32
  %129 = and i32 %128, 63
  %130 = shl i32 %129, 6
  %131 = or i32 %124, %130
  %132 = load ptr, ptr %4, align 8
  %133 = getelementptr inbounds i8, ptr %132, i64 2
  %134 = load i8, ptr %133, align 1
  %135 = sext i8 %134 to i32
  %136 = and i32 %135, 63
  %137 = or i32 %131, %136
  store i32 %137, ptr %10, align 4
  %138 = load ptr, ptr %4, align 8
  %139 = getelementptr inbounds i8, ptr %138, i64 3
  store ptr %139, ptr %4, align 8
  br label %141

140:                                              ; preds = %88
  store i8 0, ptr %7, align 1
  br label %170

141:                                              ; preds = %114
  br label %142

142:                                              ; preds = %141, %69
  br label %143

143:                                              ; preds = %142, %39
  br label %144

144:                                              ; preds = %143, %26
  %145 = load i64, ptr %8, align 8
  %146 = add nsw i64 %145, -1
  store i64 %146, ptr %8, align 8
  %147 = icmp slt i64 %146, 0
  br i1 %147, label %148, label %149

148:                                              ; preds = %144
  br label %170

149:                                              ; preds = %144
  %150 = load i32, ptr %10, align 4
  %151 = icmp ugt i32 %150, 65535
  br i1 %151, label %152, label %165

152:                                              ; preds = %149
  %153 = load i64, ptr %8, align 8
  %154 = add nsw i64 %153, -1
  store i64 %154, ptr %8, align 8
  %155 = icmp slt i64 %154, 0
  br i1 %155, label %156, label %157

156:                                              ; preds = %152
  br label %170

157:                                              ; preds = %152
  %158 = load i32, ptr %10, align 4
  %159 = icmp ugt i32 %158, 1114111
  br i1 %159, label %160, label %161

160:                                              ; preds = %157
  store i8 0, ptr %7, align 1
  br label %14, !llvm.loop !11

161:                                              ; preds = %157
  %162 = load i32, ptr %10, align 4
  %163 = load ptr, ptr %5, align 8
  %164 = getelementptr inbounds i32, ptr %163, i32 1
  store ptr %164, ptr %5, align 8
  store i32 %162, ptr %163, align 4
  br label %169

165:                                              ; preds = %149
  %166 = load i32, ptr %10, align 4
  %167 = load ptr, ptr %5, align 8
  %168 = getelementptr inbounds i32, ptr %167, i32 1
  store ptr %168, ptr %5, align 8
  store i32 %166, ptr %167, align 4
  br label %169

169:                                              ; preds = %165, %161
  br label %14, !llvm.loop !11

170:                                              ; preds = %156, %148, %140, %113, %68, %38, %14
  %171 = load ptr, ptr %5, align 8
  store i32 0, ptr %171, align 4
  %172 = load i8, ptr %7, align 1
  %173 = trunc i8 %172 to i1
  ret i1 %173
}