; Function Attrs: mustprogress nofree norecurse nosync nounwind memory(argmem: readwrite) uwtable
define noundef zeroext i1 @_Z9UtfToWidePKcPwm(ptr noundef readonly captures(none) %0, ptr noundef writeonly captures(none) %1, i64 noundef %2) local_unnamed_addr #4 {
  %4 = add nsw i64 %2, -1
  br label %.outer

.outer:                                           ; preds = %.split.loop.exit56, %3
  %.041.ph = phi ptr [ %.142, %.split.loop.exit56 ], [ %1, %3 ]
  %.039.ph = phi i1 [ %.039, %.split.loop.exit56 ], [ true, %3 ]
  %.037.ph = phi i64 [ %.138, %.split.loop.exit56 ], [ %4, %3 ]
  %.036.ph = phi ptr [ %.1, %.split.loop.exit56 ], [ %0, %3 ]
  br label %5

5:                                                ; preds = %.outer, %77
  %.039 = phi i1 [ false, %77 ], [ %.039.ph, %.outer ]
  %.037 = phi i64 [ %78, %77 ], [ %.037.ph, %.outer ]
  %.036 = phi ptr [ %.1, %77 ], [ %.036.ph, %.outer ]
  %6 = load i8, ptr %.036, align 1
  %.not = icmp eq i8 %6, 0
  br i1 %.not, label %81, label %7

7:                                                ; preds = %5
  %8 = getelementptr inbounds nuw i8, ptr %.036, i64 1
  %9 = zext i8 %6 to i32
  %10 = icmp sgt i8 %6, -1
  br i1 %10, label %71, label %11

11:                                               ; preds = %7
  %.mask = and i32 %9, 224
  %12 = icmp eq i32 %.mask, 192
  br i1 %12, label %13, label %23

13:                                               ; preds = %11
  %14 = load i8, ptr %8, align 1
  %15 = zext i8 %14 to i32
  %16 = and i32 %15, 192
  %.not54 = icmp eq i32 %16, 128
  br i1 %.not54, label %17, label %81

17:                                               ; preds = %13
  %18 = shl nuw nsw i32 %9, 6
  %19 = and i32 %18, 1984
  %20 = and i32 %15, 63
  %21 = or disjoint i32 %20, %19
  %22 = getelementptr inbounds nuw i8, ptr %.036, i64 2
  br label %71

23:                                               ; preds = %11
  %.mask47 = and i32 %9, 240
  %24 = icmp eq i32 %.mask47, 224
  br i1 %24, label %25, label %43

25:                                               ; preds = %23
  %26 = load i8, ptr %8, align 1
  %27 = sext i8 %26 to i32
  %28 = and i32 %27, 192
  %.not52 = icmp eq i32 %28, 128
  br i1 %.not52, label %29, label %81

29:                                               ; preds = %25
  %30 = getelementptr inbounds nuw i8, ptr %.036, i64 2
  %31 = load i8, ptr %30, align 1
  %32 = zext i8 %31 to i32
  %33 = and i32 %32, 192
  %.not53 = icmp eq i32 %33, 128
  br i1 %.not53, label %34, label %81

34:                                               ; preds = %29
  %35 = shl nuw nsw i32 %9, 12
  %36 = and i32 %35, 61440
  %37 = shl nsw i32 %27, 6
  %38 = and i32 %37, 4032
  %39 = or disjoint i32 %38, %36
  %40 = and i32 %32, 63
  %41 = or disjoint i32 %39, %40
  %42 = getelementptr inbounds nuw i8, ptr %.036, i64 3
  br label %71

43:                                               ; preds = %23
  %.mask48 = and i32 %9, 248
  %44 = icmp eq i32 %.mask48, 240
  br i1 %44, label %45, label %81

45:                                               ; preds = %43
  %46 = load i8, ptr %8, align 1
  %47 = sext i8 %46 to i32
  %48 = and i32 %47, 192
  %.not49 = icmp eq i32 %48, 128
  br i1 %.not49, label %49, label %81

49:                                               ; preds = %45
  %50 = getelementptr inbounds nuw i8, ptr %.036, i64 2
  %51 = load i8, ptr %50, align 1
  %52 = sext i8 %51 to i32
  %53 = and i32 %52, 192
  %.not50 = icmp eq i32 %53, 128
  br i1 %.not50, label %54, label %81

54:                                               ; preds = %49
  %55 = getelementptr inbounds nuw i8, ptr %.036, i64 3
  %56 = load i8, ptr %55, align 1
  %57 = zext i8 %56 to i32
  %58 = and i32 %57, 192
  %.not51 = icmp eq i32 %58, 128
  br i1 %.not51, label %59, label %81

59:                                               ; preds = %54
  %60 = shl nuw nsw i32 %9, 18
  %61 = and i32 %60, 1835008
  %62 = shl nsw i32 %47, 12
  %63 = and i32 %62, 258048
  %64 = or disjoint i32 %63, %61
  %65 = shl nsw i32 %52, 6
  %66 = and i32 %65, 4032
  %67 = or disjoint i32 %64, %66
  %68 = and i32 %57, 63
  %69 = or disjoint i32 %67, %68
  %70 = getelementptr inbounds nuw i8, ptr %.036, i64 4
  br label %71

71:                                               ; preds = %7, %17, %59, %34
  %.1 = phi ptr [ %22, %17 ], [ %42, %34 ], [ %70, %59 ], [ %8, %7 ]
  %.0 = phi i32 [ %21, %17 ], [ %41, %34 ], [ %69, %59 ], [ %9, %7 ]
  %72 = icmp slt i64 %.037, 1
  br i1 %72, label %81, label %73

73:                                               ; preds = %71
  %74 = icmp samesign ugt i32 %.0, 65535
  br i1 %74, label %75, label %.split.loop.exit

75:                                               ; preds = %73
  %76 = icmp eq i64 %.037, 1
  br i1 %76, label %81, label %77

77:                                               ; preds = %75
  %78 = add nsw i64 %.037, -2
  %79 = icmp samesign ugt i32 %.0, 1114111
  br i1 %79, label %5, label %.split.loop.exit56, !llvm.loop !11

.split.loop.exit:                                 ; preds = %73
  %80 = add nsw i64 %.037, -1
  br label %.split.loop.exit56

.split.loop.exit56:                               ; preds = %77, %.split.loop.exit
  %.138 = phi i64 [ %80, %.split.loop.exit ], [ %78, %77 ]
  %.142 = getelementptr inbounds nuw i8, ptr %.041.ph, i64 4
  store i32 %.0, ptr %.041.ph, align 4
  br label %.outer, !llvm.loop !11

81:                                               ; preds = %43, %45, %49, %54, %25, %29, %13, %75, %71, %5
  %.140 = phi i1 [ %.039, %71 ], [ %.039, %75 ], [ %.039, %5 ], [ false, %13 ], [ false, %29 ], [ false, %25 ], [ false, %54 ], [ false, %49 ], [ false, %45 ], [ false, %43 ]
  store i32 0, ptr %.041.ph, align 4
  ret i1 %.140
}